target datalayout = "e-m:e-p270:32:32-p271:32:32-p272:64:64-i64:64-i128:128-f80:128-n8:16:32:64-S128"
target triple = "x86_64-pc-linux-gnu"

%struct.H265RawScalingList = type { [4 x [6 x i8]], [4 x [6 x i8]], [4 x [6 x i16]], [4 x [6 x [64 x i8]]] }

@.str.389 = private unnamed_addr constant [46 x i8] c"scaling_list_pred_mode_flag[sizeId][matrixId]\00", align 1
@.str.390 = private unnamed_addr constant [52 x i8] c"scaling_list_pred_matrix_id_delta[sizeId][matrixId]\00", align 1
@.str.391 = private unnamed_addr constant [50 x i8] c"scaling_list_dc_coef_minus8[sizeId - 2][matrixId]\00", align 1
@.str.392 = private unnamed_addr constant [46 x i8] c"scaling_list_delta_coeff[sizeId][matrixId][i]\00", align 1

; Function Attrs: nounwind uwtable
define internal i32 @cbs_h265_write_scaling_list_data(ptr noundef %0, ptr noundef %1, ptr noundef %2) #0 {
  %4 = alloca i32, align 4
  %5 = alloca ptr, align 8
  %6 = alloca ptr, align 8
  %7 = alloca ptr, align 8
  %8 = alloca i32, align 4
  %9 = alloca i32, align 4
  %10 = alloca i32, align 4
  %11 = alloca i32, align 4
  %12 = alloca i32, align 4
  %13 = alloca i32, align 4
  %14 = alloca [3 x i32], align 4
  %15 = alloca i32, align 4
  %16 = alloca i32, align 4
  %17 = alloca [3 x i32], align 4
  %18 = alloca i32, align 4
  %19 = alloca [3 x i32], align 4
  %20 = alloca i32, align 4
  %21 = alloca [4 x i32], align 4
  store ptr %0, ptr %5, align 8, !tbaa !4
  store ptr %1, ptr %6, align 8, !tbaa !70
  store ptr %2, ptr %7, align 8, !tbaa !716
  call void @llvm.lifetime.start.p0(i64 4, ptr %8) #11
  call void @llvm.lifetime.start.p0(i64 4, ptr %9) #11
  call void @llvm.lifetime.start.p0(i64 4, ptr %10) #11
  call void @llvm.lifetime.start.p0(i64 4, ptr %11) #11
  call void @llvm.lifetime.start.p0(i64 4, ptr %12) #11
  store i32 0, ptr %8, align 4, !tbaa !11
  br label %22

22:                                               ; preds = %224, %3
  %23 = load i32, ptr %8, align 4, !tbaa !11
  %24 = icmp slt i32 %23, 4
  br i1 %24, label %25, label %227

25:                                               ; preds = %22
  store i32 0, ptr %9, align 4, !tbaa !11
  br label %26

26:                                               ; preds = %217, %25
  %27 = load i32, ptr %9, align 4, !tbaa !11
  %28 = icmp slt i32 %27, 6
  br i1 %28, label %29, label %223

29:                                               ; preds = %26
  br label %30

30:                                               ; preds = %29
  call void @llvm.lifetime.start.p0(i64 4, ptr %13) #11
  %31 = load ptr, ptr %7, align 8, !tbaa !716
  %32 = getelementptr inbounds nuw %struct.H265RawScalingList, ptr %31, i32 0, i32 0
  %33 = load i32, ptr %8, align 4, !tbaa !11
  %34 = sext i32 %33 to i64
  %35 = getelementptr inbounds [4 x [6 x i8]], ptr %32, i64 0, i64 %34
  %36 = load i32, ptr %9, align 4, !tbaa !11
  %37 = sext i32 %36 to i64
  %38 = getelementptr inbounds [6 x i8], ptr %35, i64 0, i64 %37
  %39 = load i8, ptr %38, align 1, !tbaa !32
  %40 = zext i8 %39 to i32
  store i32 %40, ptr %13, align 4, !tbaa !11
  br label %41

41:                                               ; preds = %30
  %42 = load ptr, ptr %5, align 8, !tbaa !4
  %43 = load ptr, ptr %6, align 8, !tbaa !70
  store i32 2, ptr %14, align 4, !tbaa !11
  %44 = getelementptr inbounds i32, ptr %14, i64 1
  %45 = load i32, ptr %8, align 4, !tbaa !11
  store i32 %45, ptr %44, align 4, !tbaa !11
  %46 = getelementptr inbounds i32, ptr %14, i64 2
  %47 = load i32, ptr %9, align 4, !tbaa !11
  store i32 %47, ptr %46, align 4, !tbaa !11
  %48 = getelementptr inbounds [3 x i32], ptr %14, i64 0, i64 0
  %49 = load i32, ptr %13, align 4, !tbaa !11
  %50 = call i32 @ff_cbs_write_unsigned(ptr noundef %42, ptr noundef %43, i32 noundef 1, ptr noundef @.str.389, ptr noundef %48, i32 noundef %49, i32 noundef 0, i32 noundef 1)
  store i32 %50, ptr %10, align 4, !tbaa !11
  %51 = load i32, ptr %10, align 4, !tbaa !11
  %52 = icmp slt i32 %51, 0
  br i1 %52, label %53, label %55

53:                                               ; preds = %41
  %54 = load i32, ptr %10, align 4, !tbaa !11
  store i32 %54, ptr %4, align 4
  store i32 1, ptr %15, align 4
  br label %58

55:                                               ; preds = %41
  br label %56

56:                                               ; preds = %55
  br label %57

57:                                               ; preds = %56
  store i32 0, ptr %15, align 4
  br label %58

58:                                               ; preds = %57, %53
  call void @llvm.lifetime.end.p0(i64 4, ptr %13) #11
  %59 = load i32, ptr %15, align 4
  switch i32 %59, label %228 [
    i32 0, label %60
  ]

60:                                               ; preds = %58
  br label %61

61:                                               ; preds = %60
  br label %62

62:                                               ; preds = %61
  %63 = load ptr, ptr %7, align 8, !tbaa !716
  %64 = getelementptr inbounds nuw %struct.H265RawScalingList, ptr %63, i32 0, i32 0
  %65 = load i32, ptr %8, align 4, !tbaa !11
  %66 = sext i32 %65 to i64
  %67 = getelementptr inbounds [4 x [6 x i8]], ptr %64, i64 0, i64 %66
  %68 = load i32, ptr %9, align 4, !tbaa !11
  %69 = sext i32 %68 to i64
  %70 = getelementptr inbounds [6 x i8], ptr %67, i64 0, i64 %69
  %71 = load i8, ptr %70, align 1, !tbaa !32
  %72 = icmp ne i8 %71, 0
  br i1 %72, label %116, label %73

73:                                               ; preds = %62
  br label %74

74:                                               ; preds = %73
  call void @llvm.lifetime.start.p0(i64 4, ptr %16) #11
  %75 = load ptr, ptr %7, align 8, !tbaa !716
  %76 = getelementptr inbounds nuw %struct.H265RawScalingList, ptr %75, i32 0, i32 1
  %77 = load i32, ptr %8, align 4, !tbaa !11
  %78 = sext i32 %77 to i64
  %79 = getelementptr inbounds [4 x [6 x i8]], ptr %76, i64 0, i64 %78
  %80 = load i32, ptr %9, align 4, !tbaa !11
  %81 = sext i32 %80 to i64
  %82 = getelementptr inbounds [6 x i8], ptr %79, i64 0, i64 %81
  %83 = load i8, ptr %82, align 1, !tbaa !32
  %84 = zext i8 %83 to i32
  store i32 %84, ptr %16, align 4, !tbaa !11
  br label %85

85:                                               ; preds = %74
  %86 = load ptr, ptr %5, align 8, !tbaa !4
  %87 = load ptr, ptr %6, align 8, !tbaa !70
  store i32 2, ptr %17, align 4, !tbaa !11
  %88 = getelementptr inbounds i32, ptr %17, i64 1
  %89 = load i32, ptr %8, align 4, !tbaa !11
  store i32 %89, ptr %88, align 4, !tbaa !11
  %90 = getelementptr inbounds i32, ptr %17, i64 2
  %91 = load i32, ptr %9, align 4, !tbaa !11
  store i32 %91, ptr %90, align 4, !tbaa !11
  %92 = getelementptr inbounds [3 x i32], ptr %17, i64 0, i64 0
  %93 = load i32, ptr %16, align 4, !tbaa !11
  %94 = load i32, ptr %8, align 4, !tbaa !11
  %95 = icmp eq i32 %94, 3
  br i1 %95, label %96, label %99

96:                                               ; preds = %85
  %97 = load i32, ptr %9, align 4, !tbaa !11
  %98 = sdiv i32 %97, 3
  br label %101

99:                                               ; preds = %85
  %100 = load i32, ptr %9, align 4, !tbaa !11
  br label %101

101:                                              ; preds = %99, %96
  %102 = phi i32 [ %98, %96 ], [ %100, %99 ]
  %103 = call i32 @cbs_write_ue_golomb(ptr noundef %86, ptr noundef %87, ptr noundef @.str.390, ptr noundef %92, i32 noundef %93, i32 noundef 0, i32 noundef %102)
  store i32 %103, ptr %10, align 4, !tbaa !11
  %104 = load i32, ptr %10, align 4, !tbaa !11
  %105 = icmp slt i32 %104, 0
  br i1 %105, label %106, label %108

106:                                              ; preds = %101
  %107 = load i32, ptr %10, align 4, !tbaa !11
  store i32 %107, ptr %4, align 4
  store i32 1, ptr %15, align 4
  br label %111

108:                                              ; preds = %101
  br label %109

109:                                              ; preds = %108
  br label %110

110:                                              ; preds = %109
  store i32 0, ptr %15, align 4
  br label %111

111:                                              ; preds = %110, %106
  call void @llvm.lifetime.end.p0(i64 4, ptr %16) #11
  %112 = load i32, ptr %15, align 4
  switch i32 %112, label %228 [
    i32 0, label %113
  ]

113:                                              ; preds = %111
  br label %114

114:                                              ; preds = %113
  br label %115

115:                                              ; preds = %114
  br label %216

116:                                              ; preds = %62
  %117 = load i32, ptr %8, align 4, !tbaa !11
  %118 = shl i32 %117, 1
  %119 = add nsw i32 4, %118
  %120 = shl i32 1, %119
  %121 = icmp sgt i32 64, %120
  br i1 %121, label %122, label %127

122:                                              ; preds = %116
  %123 = load i32, ptr %8, align 4, !tbaa !11
  %124 = shl i32 %123, 1
  %125 = add nsw i32 4, %124
  %126 = shl i32 1, %125
  br label %128

127:                                              ; preds = %116
  br label %128

128:                                              ; preds = %127, %122
  %129 = phi i32 [ %126, %122 ], [ 64, %127 ]
  store i32 %129, ptr %11, align 4, !tbaa !11
  %130 = load i32, ptr %8, align 4, !tbaa !11
  %131 = icmp sgt i32 %130, 1
  br i1 %131, label %132, label %168

132:                                              ; preds = %128
  br label %133

133:                                              ; preds = %132
  call void @llvm.lifetime.start.p0(i64 4, ptr %18) #11
  %134 = load ptr, ptr %7, align 8, !tbaa !716
  %135 = getelementptr inbounds nuw %struct.H265RawScalingList, ptr %134, i32 0, i32 2
  %136 = load i32, ptr %8, align 4, !tbaa !11
  %137 = sub nsw i32 %136, 2
  %138 = sext i32 %137 to i64
  %139 = getelementptr inbounds [4 x [6 x i16]], ptr %135, i64 0, i64 %138
  %140 = load i32, ptr %9, align 4, !tbaa !11
  %141 = sext i32 %140 to i64
  %142 = getelementptr inbounds [6 x i16], ptr %139, i64 0, i64 %141
  %143 = load i16, ptr %142, align 2, !tbaa !195
  %144 = sext i16 %143 to i32
  store i32 %144, ptr %18, align 4, !tbaa !11
  br label %145

145:                                              ; preds = %133
  %146 = load ptr, ptr %5, align 8, !tbaa !4
  %147 = load ptr, ptr %6, align 8, !tbaa !70
  store i32 2, ptr %19, align 4, !tbaa !11
  %148 = getelementptr inbounds i32, ptr %19, i64 1
  %149 = load i32, ptr %8, align 4, !tbaa !11
  %150 = sub nsw i32 %149, 2
  store i32 %150, ptr %148, align 4, !tbaa !11
  %151 = getelementptr inbounds i32, ptr %19, i64 2
  %152 = load i32, ptr %9, align 4, !tbaa !11
  store i32 %152, ptr %151, align 4, !tbaa !11
  %153 = getelementptr inbounds [3 x i32], ptr %19, i64 0, i64 0
  %154 = load i32, ptr %18, align 4, !tbaa !11
  %155 = call i32 @cbs_write_se_golomb(ptr noundef %146, ptr noundef %147, ptr noundef @.str.391, ptr noundef %153, i32 noundef %154, i32 noundef -7, i32 noundef 247)
  store i32 %155, ptr %10, align 4, !tbaa !11
  %156 = load i32, ptr %10, align 4, !tbaa !11
  %157 = icmp slt i32 %156, 0
  br i1 %157, label %158, label %160

158:                                              ; preds = %145
  %159 = load i32, ptr %10, align 4, !tbaa !11
  store i32 %159, ptr %4, align 4
  store i32 1, ptr %15, align 4
  br label %163

160:                                              ; preds = %145
  br label %161

161:                                              ; preds = %160
  br label %162

162:                                              ; preds = %161
  store i32 0, ptr %15, align 4
  br label %163

163:                                              ; preds = %162, %158
  call void @llvm.lifetime.end.p0(i64 4, ptr %18) #11
  %164 = load i32, ptr %15, align 4
  switch i32 %164, label %228 [
    i32 0, label %165
  ]

165:                                              ; preds = %163
  br label %166

166:                                              ; preds = %165
  br label %167

167:                                              ; preds = %166
  br label %168

168:                                              ; preds = %167, %128
  store i32 0, ptr %12, align 4, !tbaa !11
  br label %169

169:                                              ; preds = %212, %168
  %170 = load i32, ptr %12, align 4, !tbaa !11
  %171 = load i32, ptr %11, align 4, !tbaa !11
  %172 = icmp slt i32 %170, %171
  br i1 %172, label %173, label %215

173:                                              ; preds = %169
  br label %174

174:                                              ; preds = %173
  call void @llvm.lifetime.start.p0(i64 4, ptr %20) #11
  %175 = load ptr, ptr %7, align 8, !tbaa !716
  %176 = getelementptr inbounds nuw %struct.H265RawScalingList, ptr %175, i32 0, i32 3
  %177 = load i32, ptr %8, align 4, !tbaa !11
  %178 = sext i32 %177 to i64
  %179 = getelementptr inbounds [4 x [6 x [64 x i8]]], ptr %176, i64 0, i64 %178
  %180 = load i32, ptr %9, align 4, !tbaa !11
  %181 = sext i32 %180 to i64
  %182 = getelementptr inbounds [6 x [64 x i8]], ptr %179, i64 0, i64 %181
  %183 = load i32, ptr %12, align 4, !tbaa !11
  %184 = sext i32 %183 to i64
  %185 = getelementptr inbounds [64 x i8], ptr %182, i64 0, i64 %184
  %186 = load i8, ptr %185, align 1, !tbaa !32
  %187 = sext i8 %186 to i32
  store i32 %187, ptr %20, align 4, !tbaa !11
  br label %188

188:                                              ; preds = %174
  %189 = load ptr, ptr %5, align 8, !tbaa !4
  %190 = load ptr, ptr %6, align 8, !tbaa !70
  store i32 3, ptr %21, align 4, !tbaa !11
  %191 = getelementptr inbounds i32, ptr %21, i64 1
  %192 = load i32, ptr %8, align 4, !tbaa !11
  store i32 %192, ptr %191, align 4, !tbaa !11
  %193 = getelementptr inbounds i32, ptr %21, i64 2
  %194 = load i32, ptr %9, align 4, !tbaa !11
  store i32 %194, ptr %193, align 4, !tbaa !11
  %195 = getelementptr inbounds i32, ptr %21, i64 3
  %196 = load i32, ptr %12, align 4, !tbaa !11
  store i32 %196, ptr %195, align 4, !tbaa !11
  %197 = getelementptr inbounds [4 x i32], ptr %21, i64 0, i64 0
  %198 = load i32, ptr %20, align 4, !tbaa !11
  %199 = call i32 @cbs_write_se_golomb(ptr noundef %189, ptr noundef %190, ptr noundef @.str.392, ptr noundef %197, i32 noundef %198, i32 noundef -128, i32 noundef 127)
  store i32 %199, ptr %10, align 4, !tbaa !11
  %200 = load i32, ptr %10, align 4, !tbaa !11
  %201 = icmp slt i32 %200, 0
  br i1 %201, label %202, label %204

202:                                              ; preds = %188
  %203 = load i32, ptr %10, align 4, !tbaa !11
  store i32 %203, ptr %4, align 4
  store i32 1, ptr %15, align 4
  br label %207

204:                                              ; preds = %188
  br label %205

205:                                              ; preds = %204
  br label %206

206:                                              ; preds = %205
  store i32 0, ptr %15, align 4
  br label %207

207:                                              ; preds = %206, %202
  call void @llvm.lifetime.end.p0(i64 4, ptr %20) #11
  %208 = load i32, ptr %15, align 4
  switch i32 %208, label %228 [
    i32 0, label %209
  ]

209:                                              ; preds = %207
  br label %210

210:                                              ; preds = %209
  br label %211

211:                                              ; preds = %210
  br label %212

212:                                              ; preds = %211
  %213 = load i32, ptr %12, align 4, !tbaa !11
  %214 = add nsw i32 %213, 1
  store i32 %214, ptr %12, align 4, !tbaa !11
  br label %169, !llvm.loop !881

215:                                              ; preds = %169
  br label %216

216:                                              ; preds = %215, %115
  br label %217

217:                                              ; preds = %216
  %218 = load i32, ptr %8, align 4, !tbaa !11
  %219 = icmp eq i32 %218, 3
  %220 = select i1 %219, i32 3, i32 1
  %221 = load i32, ptr %9, align 4, !tbaa !11
  %222 = add nsw i32 %221, %220
  store i32 %222, ptr %9, align 4, !tbaa !11
  br label %26, !llvm.loop !882

223:                                              ; preds = %26
  br label %224

224:                                              ; preds = %223
  %225 = load i32, ptr %8, align 4, !tbaa !11
  %226 = add nsw i32 %225, 1
  store i32 %226, ptr %8, align 4, !tbaa !11
  br label %22, !llvm.loop !883

227:                                              ; preds = %22
  store i32 0, ptr %4, align 4
  store i32 1, ptr %15, align 4
  br label %228

228:                                              ; preds = %227, %207, %163, %111, %58
  call void @llvm.lifetime.end.p0(i64 4, ptr %12) #11
  call void @llvm.lifetime.end.p0(i64 4, ptr %11) #11
  call void @llvm.lifetime.end.p0(i64 4, ptr %10) #11
  call void @llvm.lifetime.end.p0(i64 4, ptr %9) #11
  call void @llvm.lifetime.end.p0(i64 4, ptr %8) #11
  %229 = load i32, ptr %4, align 4
  ret i32 %229
}