; Function Attrs: nounwind uwtable
define internal fastcc range(i32 -2147483648, 1) i32 @cbs_h265_write_scaling_list_data(ptr noundef %0, ptr noundef %1, ptr noundef readonly captures(none) %2) unnamed_addr #0 {
  %4 = alloca [3 x i32], align 4
  %5 = alloca [3 x i32], align 4
  %6 = alloca [3 x i32], align 4
  %7 = alloca [4 x i32], align 4
  %8 = getelementptr inbounds nuw i8, ptr %4, i64 4
  %9 = getelementptr inbounds nuw i8, ptr %4, i64 8
  %10 = getelementptr inbounds nuw i8, ptr %2, i64 48
  %11 = getelementptr inbounds nuw i8, ptr %6, i64 4
  %12 = getelementptr inbounds nuw i8, ptr %6, i64 8
  %13 = getelementptr inbounds nuw i8, ptr %2, i64 96
  %14 = getelementptr inbounds nuw i8, ptr %7, i64 4
  %15 = getelementptr inbounds nuw i8, ptr %7, i64 8
  %16 = getelementptr inbounds nuw i8, ptr %7, i64 12
  %17 = getelementptr inbounds nuw i8, ptr %2, i64 24
  %18 = getelementptr inbounds nuw i8, ptr %5, i64 4
  %19 = getelementptr inbounds nuw i8, ptr %5, i64 8
  br label %.preheader

.preheader:                                       ; preds = %3, %61
  %indvars.iv90 = phi i64 [ 0, %3 ], [ %indvars.iv.next91, %61 ]
  %indvars.iv90.tr = trunc i64 %indvars.iv90 to i32
  %20 = shl i32 %indvars.iv90.tr, 1
  %21 = shl nuw nsw i32 16, %20
  %22 = icmp samesign ugt i64 %indvars.iv90, 1
  %23 = add nsw i64 %indvars.iv90, -2
  %24 = icmp eq i64 %indvars.iv90, 3
  %umax = call i32 @llvm.umin.i32(i32 %21, i32 64)
  %25 = select i1 %24, i64 3, i64 1
  %26 = trunc nuw nsw i64 %indvars.iv90 to i32
  %27 = trunc nsw i64 %23 to i32
  %wide.trip.count = zext nneg i32 %umax to i64
  br label %28

28:                                               ; preds = %.preheader, %.loopexit
  %indvars.iv87 = phi i64 [ 0, %.preheader ], [ %indvars.iv.next88, %.loopexit ]
  %29 = getelementptr inbounds nuw [4 x [6 x i8]], ptr %2, i64 0, i64 %indvars.iv90, i64 %indvars.iv87
  %30 = load i8, ptr %29, align 1, !tbaa !25
  %31 = zext i8 %30 to i32
  store i32 2, ptr %4, align 4, !tbaa !63
  store i32 %26, ptr %8, align 4, !tbaa !63
  %32 = trunc nuw nsw i64 %indvars.iv87 to i32
  store i32 %32, ptr %9, align 4, !tbaa !63
  %33 = call i32 @ff_cbs_write_unsigned(ptr noundef %0, ptr noundef %1, i32 noundef 1, ptr noundef nonnull @.str.389, ptr noundef nonnull %4, i32 noundef %31, i32 noundef 0, i32 noundef 1) #11
  %34 = icmp sgt i32 %33, -1
  br i1 %34, label %35, label %.loopexit77

35:                                               ; preds = %28
  %36 = load i8, ptr %29, align 1, !tbaa !25
  %.not = icmp eq i8 %36, 0
  br i1 %.not, label %37, label %45

37:                                               ; preds = %35
  %38 = getelementptr inbounds nuw [4 x [6 x i8]], ptr %17, i64 0, i64 %indvars.iv90, i64 %indvars.iv87
  %39 = load i8, ptr %38, align 1, !tbaa !25
  %40 = zext i8 %39 to i32
  store i32 2, ptr %5, align 4, !tbaa !63
  store i32 %26, ptr %18, align 4, !tbaa !63
  store i32 %32, ptr %19, align 4, !tbaa !63
  %.cmp = icmp samesign ugt i64 %indvars.iv87, 2
  %41 = zext i1 %.cmp to i32
  %42 = select i1 %24, i32 %41, i32 %32
  %43 = call fastcc i32 @cbs_write_ue_golomb(ptr noundef %0, ptr noundef %1, ptr noundef nonnull @.str.390, ptr noundef nonnull %5, i32 noundef %40, i32 noundef 0, i32 noundef %42)
  %44 = icmp sgt i32 %43, -1
  br i1 %44, label %.loopexit, label %.loopexit77

45:                                               ; preds = %35
  br i1 %22, label %46, label %.preheader100

46:                                               ; preds = %45
  %47 = getelementptr inbounds nuw [4 x [6 x i16]], ptr %10, i64 0, i64 %23, i64 %indvars.iv87
  %48 = load i16, ptr %47, align 2, !tbaa !129
  %49 = sext i16 %48 to i32
  store i32 2, ptr %6, align 4, !tbaa !63
  store i32 %27, ptr %11, align 4, !tbaa !63
  store i32 %32, ptr %12, align 4, !tbaa !63
  %50 = call fastcc i32 @cbs_write_se_golomb(ptr noundef %0, ptr noundef %1, ptr noundef nonnull @.str.391, ptr noundef nonnull %6, i32 noundef %49, i32 noundef -7, i32 noundef 247)
  %51 = icmp sgt i32 %50, -1
  br i1 %51, label %.preheader100, label %.loopexit77

.preheader100:                                    ; preds = %46, %45
  br label %53

52:                                               ; preds = %53
  %indvars.iv.next = add nuw nsw i64 %indvars.iv, 1
  %exitcond.not = icmp eq i64 %indvars.iv.next, %wide.trip.count
  br i1 %exitcond.not, label %.loopexit, label %53, !llvm.loop !1142

53:                                               ; preds = %.preheader100, %52
  %indvars.iv = phi i64 [ %indvars.iv.next, %52 ], [ 0, %.preheader100 ]
  %54 = getelementptr inbounds nuw [4 x [6 x [64 x i8]]], ptr %13, i64 0, i64 %indvars.iv90, i64 %indvars.iv87, i64 %indvars.iv
  %55 = load i8, ptr %54, align 1, !tbaa !25
  %56 = sext i8 %55 to i32
  store i32 3, ptr %7, align 4, !tbaa !63
  store i32 %26, ptr %14, align 4, !tbaa !63
  store i32 %32, ptr %15, align 4, !tbaa !63
  %57 = trunc nuw nsw i64 %indvars.iv to i32
  store i32 %57, ptr %16, align 4, !tbaa !63
  %58 = call fastcc i32 @cbs_write_se_golomb(ptr noundef %0, ptr noundef %1, ptr noundef nonnull @.str.392, ptr noundef nonnull %7, i32 noundef %56, i32 noundef -128, i32 noundef 127)
  %59 = icmp sgt i32 %58, -1
  br i1 %59, label %52, label %.loopexit77

.loopexit:                                        ; preds = %52, %37
  %indvars.iv.next88 = add nuw nsw i64 %indvars.iv87, %25
  %60 = icmp samesign ult i64 %indvars.iv.next88, 6
  br i1 %60, label %28, label %61, !llvm.loop !1143

61:                                               ; preds = %.loopexit
  %indvars.iv.next91 = add nuw nsw i64 %indvars.iv90, 1
  %exitcond93.not = icmp eq i64 %indvars.iv.next91, 4
  br i1 %exitcond93.not, label %.loopexit77, label %.preheader, !llvm.loop !1144

.loopexit77:                                      ; preds = %61, %46, %37, %28, %53
  %.3 = phi i32 [ %58, %53 ], [ %33, %28 ], [ %43, %37 ], [ %50, %46 ], [ 0, %61 ]
  ret i32 %.3
}